; Function Attrs: nounwind uwtable
define void @realignNodelist(ptr noundef captures(none) %0, i64 noundef %1) local_unnamed_addr #0 {
  %.not5 = icmp eq i64 %1, 0
  br i1 %.not5, label %._crit_edge, label %.lr.ph

.lr.ph:                                           ; preds = %2
  %3 = getelementptr inbounds nuw i8, ptr %0, i64 8
  %4 = getelementptr inbounds nuw i8, ptr %0, i64 24
  %5 = getelementptr inbounds nuw i8, ptr %0, i64 16
  %.pre = load ptr, ptr %0, align 8, !tbaa !12
  %.pre7 = load i64, ptr %3, align 8, !tbaa !11
  %.pre8 = load i64, ptr %4, align 8, !tbaa !10
  %.pre9 = load i64, ptr %5, align 8, !tbaa !3
  %6 = add i64 %.pre9, -1
  br label %7

._crit_edge:                                      ; preds = %nodelist_push_back.exit, %2
  ret void

7:                                                ; preds = %.lr.ph, %nodelist_push_back.exit
  %8 = phi i64 [ %6, %.lr.ph ], [ %47, %nodelist_push_back.exit ]
  %9 = phi i64 [ %.pre8, %.lr.ph ], [ %45, %nodelist_push_back.exit ]
  %10 = phi i64 [ %.pre7, %.lr.ph ], [ %48, %nodelist_push_back.exit ]
  %11 = phi ptr [ %.pre, %.lr.ph ], [ %46, %nodelist_push_back.exit ]
  %.06 = phi i64 [ %1, %.lr.ph ], [ %53, %nodelist_push_back.exit ]
  %12 = urem i64 %10, %9
  %13 = getelementptr inbounds nuw ptr, ptr %11, i64 %12
  %14 = load ptr, ptr %13, align 8, !tbaa !15
  %15 = add i64 %10, 1
  %16 = urem i64 %15, %9
  store i64 %16, ptr %3, align 8, !tbaa !11
  store i64 %8, ptr %5, align 8, !tbaa !3
  %17 = icmp eq i64 %8, %9
  br i1 %17, label %18, label %nodelist_push_back.exit

18:                                               ; preds = %7
  %19 = shl i64 %9, 1
  %mul.ov.i.i.i = icmp ugt i64 %19, 2305843009213693951
  br i1 %mul.ov.i.i.i, label %41, label %20

20:                                               ; preds = %18
  %21 = shl i64 %9, 4
  %22 = tail call ptr @realloc(ptr noundef nonnull %11, i64 noundef %21) #11
  %23 = icmp eq ptr %22, null
  br i1 %23, label %41, label %24

24:                                               ; preds = %20
  %25 = load i64, ptr %4, align 8, !tbaa !10
  %26 = getelementptr inbounds nuw ptr, ptr %22, i64 %25
  %27 = sub i64 %19, %25
  %28 = shl i64 %27, 3
  tail call void @llvm.memset.p0.i64(ptr nonnull align 8 %26, i8 0, i64 %28, i1 false)
  %29 = load i64, ptr %3, align 8, !tbaa !11
  %30 = load i64, ptr %5, align 8, !tbaa !3
  %31 = add i64 %30, %29
  %32 = icmp ugt i64 %31, %25
  br i1 %32, label %33, label %39

33:                                               ; preds = %24
  %34 = sub i64 %25, %29
  %35 = sub i64 %19, %34
  %36 = getelementptr inbounds nuw ptr, ptr %22, i64 %35
  %37 = getelementptr inbounds nuw ptr, ptr %22, i64 %29
  %38 = shl i64 %34, 3
  tail call void @llvm.memmove.p0.p0.i64(ptr nonnull align 8 %36, ptr nonnull align 8 %37, i64 %38, i1 false)
  store i64 %35, ptr %3, align 8, !tbaa !11
  br label %39

39:                                               ; preds = %33, %24
  %40 = phi i64 [ %29, %24 ], [ %35, %33 ]
  store ptr %22, ptr %0, align 8, !tbaa !12
  store i64 %19, ptr %4, align 8, !tbaa !10
  br label %nodelist_push_back.exit

41:                                               ; preds = %20, %18
  %.2.i.ph.i.i = phi i32 [ 34, %18 ], [ 12, %20 ]
  %42 = load ptr, ptr @stderr, align 8, !tbaa !13
  %43 = tail call ptr @strerror(i32 noundef %.2.i.ph.i.i) #12
  %44 = tail call i32 (ptr, ptr, ...) @fprintf(ptr noundef %42, ptr noundef nonnull @.str, ptr noundef %43) #13
  tail call fastcc void @graphviz_exit() #14
  unreachable

nodelist_push_back.exit:                          ; preds = %7, %39
  %45 = phi i64 [ %19, %39 ], [ %9, %7 ]
  %46 = phi ptr [ %22, %39 ], [ %11, %7 ]
  %47 = phi i64 [ %30, %39 ], [ %8, %7 ]
  %48 = phi i64 [ %40, %39 ], [ %16, %7 ]
  %49 = add i64 %48, %47
  %50 = urem i64 %49, %45
  %51 = getelementptr inbounds nuw ptr, ptr %46, i64 %50
  store ptr %14, ptr %51, align 8, !tbaa !15
  %52 = add i64 %47, 1
  store i64 %52, ptr %5, align 8, !tbaa !3
  %53 = add i64 %.06, -1
  %.not = icmp eq i64 %53, 0
  br i1 %.not, label %._crit_edge, label %7, !llvm.loop !20
}